cnumpy.core.multiarray
_reconstruct
p0
(cnumpy
ndarray
p1
(I0
tp2
S'b'
p3
tp4
Rp5
(I1
(I6
tp6
cnumpy
dtype
p7
(S'O8'
p8
I0
I1
tp9
Rp10
(I3
S'|'
p11
NNNI-1
I-1
I63
tp12
bI00
(lp13
(dp14
S'colorSp'
p15
S'rgb'
p16
sS'desc'
p17
(lp18
(lp19
(lp20
Vlnorm
p21
a(dp22
Vkwargs
p23
(dp24
Vinker_shape
p25
(lp26
I7
aI7
asVoutker_shape
p27
(lp28
I7
aI7
asVremove_mean
p29
I00
sVthreshold
p30
F1.0
sVstretch
p31
F10.0
ssaaa(lp32
(lp33
Vfbcorr
p34
a(dp35
Vinitialize
p36
(dp37
Vn_filters
p38
I32
sVfilter_shape
p39
(lp40
I3
aI3
asVgenerate
p41
(lp42
Vrandom:uniform
p43
a(dp44
Vrseed
p45
I42
sassVkwargs
p46
(dp47
Vmax_out
p48
NsVmin_out
p49
Nssaa(lp50
Vlpool
p51
a(dp52
Vkwargs
p53
(dp54
Vker_shape
p55
(lp56
I3
aI3
asVorder
p57
F10.0
sVstride
p58
I2
ssaa(lp59
Vlnorm
p60
a(dp61
Vkwargs
p62
(dp63
Vinker_shape
p64
(lp65
I7
aI7
asVoutker_shape
p66
(lp67
I7
aI7
asVremove_mean
p68
I00
sVthreshold
p69
F1.0
sVstretch
p70
F1.0
ssaaa(lp71
(lp72
Vfbcorr
p73
a(dp74
Vinitialize
p75
(dp76
Vn_filters
p77
I16
sVfilter_shape
p78
(lp79
I7
aI7
asVgenerate
p80
(lp81
Vrandom:uniform
p82
a(dp83
Vrseed
p84
I42
sassVkwargs
p85
(dp86
Vmax_out
p87
I1
sVmin_out
p88
Nssaa(lp89
Vlpool
p90
a(dp91
Vkwargs
p92
(dp93
Vker_shape
p94
(lp95
I5
aI5
asVorder
p96
F10.0
sVstride
p97
I2
ssaa(lp98
Vlnorm
p99
a(dp100
Vkwargs
p101
(dp102
Vinker_shape
p103
(lp104
I9
aI9
asVoutker_shape
p105
(lp106
I9
aI9
asVremove_mean
p107
I00
sVthreshold
p108
F1.0
sVstretch
p109
F10.0
ssaaa(lp110
(lp111
Vfbcorr
p112
a(dp113
Vinitialize
p114
(dp115
Vn_filters
p116
I128
sVfilter_shape
p117
(lp118
I9
aI9
asVgenerate
p119
(lp120
Vrandom:uniform
p121
a(dp122
Vrseed
p123
I42
sassVkwargs
p124
(dp125
Vmax_out
p126
NsVmin_out
p127
I0
ssaa(lp128
Vlpool
p129
a(dp130
Vkwargs
p131
(dp132
Vker_shape
p133
(lp134
I9
aI9
asVorder
p135
F10.0
sVstride
p136
I2
ssaa(lp137
Vlnorm
p138
a(dp139
Vkwargs
p140
(dp141
Vinker_shape
p142
(lp143
I9
aI9
asVoutker_shape
p144
(lp145
I9
aI9
asVremove_mean
p146
I00
sVthreshold
p147
F0.1
sVstretch
p148
F1.0
ssaaasa(dp149
g15
S'yuv'
p150
sg17
(lp151
(lp152
(lp153
Vlnorm
p154
a(dp155
Vkwargs
p156
(dp157
Vinker_shape
p158
(lp159
I3
aI3
asVoutker_shape
p160
(lp161
I3
aI3
asVremove_mean
p162
I00
sVthreshold
p163
F10.0
sVstretch
p164
F0.1
ssaaa(lp165
(lp166
Vfbcorr
p167
a(dp168
Vinitialize
p169
(dp170
Vn_filters
p171
I32
sVfilter_shape
p172
(lp173
I5
aI5
asVgenerate
p174
(lp175
Vrandom:uniform
p176
a(dp177
Vrseed
p178
I42
sassVkwargs
p179
(dp180
Vmax_out
p181
I1
sVmin_out
p182
Nssaa(lp183
Vlpool
p184
a(dp185
Vkwargs
p186
(dp187
Vker_shape
p188
(lp189
I9
aI9
asVorder
p190
F10.0
sVstride
p191
I2
ssaa(lp192
Vlnorm
p193
a(dp194
Vkwargs
p195
(dp196
Vinker_shape
p197
(lp198
I3
aI3
asVoutker_shape
p199
(lp200
I3
aI3
asVremove_mean
p201
I00
sVthreshold
p202
F10.0
sVstretch
p203
F0.1
ssaaa(lp204
(lp205
Vfbcorr
p206
a(dp207
Vinitialize
p208
(dp209
Vn_filters
p210
I32
sVfilter_shape
p211
(lp212
I7
aI7
asVgenerate
p213
(lp214
Vrandom:uniform
p215
a(dp216
Vrseed
p217
I42
sassVkwargs
p218
(dp219
Vmax_out
p220
I1
sVmin_out
p221
I0
ssaa(lp222
Vlpool
p223
a(dp224
Vkwargs
p225
(dp226
Vker_shape
p227
(lp228
I7
aI7
asVorder
p229
F10.0
sVstride
p230
I2
ssaa(lp231
Vlnorm
p232
a(dp233
Vkwargs
p234
(dp235
Vinker_shape
p236
(lp237
I7
aI7
asVoutker_shape
p238
(lp239
I7
aI7
asVremove_mean
p240
I00
sVthreshold
p241
F10.0
sVstretch
p242
F1.0
ssaaa(lp243
(lp244
Vfbcorr
p245
a(dp246
Vinitialize
p247
(dp248
Vn_filters
p249
I128
sVfilter_shape
p250
(lp251
I5
aI5
asVgenerate
p252
(lp253
Vrandom:uniform
p254
a(dp255
Vrseed
p256
I42
sassVkwargs
p257
(dp258
Vmax_out
p259
I1
sVmin_out
p260
Nssaa(lp261
Vlpool
p262
a(dp263
Vkwargs
p264
(dp265
Vker_shape
p266
(lp267
I9
aI9
asVorder
p268
F1.0
sVstride
p269
I2
ssaa(lp270
Vlnorm
p271
a(dp272
Vkwargs
p273
(dp274
Vinker_shape
p275
(lp276
I3
aI3
asVoutker_shape
p277
(lp278
I3
aI3
asVremove_mean
p279
I01
sVthreshold
p280
F10.0
sVstretch
p281
F0.1
ssaaasa(dp282
g15
g150
sg17
(lp283
(lp284
(lp285
Vlnorm
p286
a(dp287
Vkwargs
p288
(dp289
Vinker_shape
p290
(lp291
I3
aI3
asVoutker_shape
p292
(lp293
I3
aI3
asVremove_mean
p294
I00
sVthreshold
p295
F10.0
sVstretch
p296
F10.0
ssaaa(lp297
(lp298
Vfbcorr
p299
a(dp300
Vinitialize
p301
(dp302
Vn_filters
p303
I32
sVfilter_shape
p304
(lp305
I5
aI5
asVgenerate
p306
(lp307
Vrandom:uniform
p308
a(dp309
Vrseed
p310
I42
sassVkwargs
p311
(dp312
Vmax_out
p313
I1
sVmin_out
p314
Nssaa(lp315
Vlpool
p316
a(dp317
Vkwargs
p318
(dp319
Vker_shape
p320
(lp321
I9
aI9
asVorder
p322
F10.0
sVstride
p323
I2
ssaa(lp324
Vlnorm
p325
a(dp326
Vkwargs
p327
(dp328
Vinker_shape
p329
(lp330
I3
aI3
asVoutker_shape
p331
(lp332
I3
aI3
asVremove_mean
p333
I00
sVthreshold
p334
F10.0
sVstretch
p335
F0.1
ssaaa(lp336
(lp337
Vfbcorr
p338
a(dp339
Vinitialize
p340
(dp341
Vn_filters
p342
I32
sVfilter_shape
p343
(lp344
I7
aI7
asVgenerate
p345
(lp346
Vrandom:uniform
p347
a(dp348
Vrseed
p349
I42
sassVkwargs
p350
(dp351
Vmax_out
p352
I1
sVmin_out
p353
I0
ssaa(lp354
Vlpool
p355
a(dp356
Vkwargs
p357
(dp358
Vker_shape
p359
(lp360
I7
aI7
asVorder
p361
F10.0
sVstride
p362
I2
ssaa(lp363
Vlnorm
p364
a(dp365
Vkwargs
p366
(dp367
Vinker_shape
p368
(lp369
I5
aI5
asVoutker_shape
p370
(lp371
I5
aI5
asVremove_mean
p372
I00
sVthreshold
p373
F10.0
sVstretch
p374
F1.0
ssaaa(lp375
(lp376
Vfbcorr
p377
a(dp378
Vinitialize
p379
(dp380
Vn_filters
p381
I128
sVfilter_shape
p382
(lp383
I5
aI5
asVgenerate
p384
(lp385
Vrandom:uniform
p386
a(dp387
Vrseed
p388
I42
sassVkwargs
p389
(dp390
Vmax_out
p391
NsVmin_out
p392
Nssaa(lp393
Vlpool
p394
a(dp395
Vkwargs
p396
(dp397
Vker_shape
p398
(lp399
I9
aI9
asVorder
p400
F1.0
sVstride
p401
I2
ssaa(lp402
Vlnorm
p403
a(dp404
Vkwargs
p405
(dp406
Vinker_shape
p407
(lp408
I5
aI5
asVoutker_shape
p409
(lp410
I5
aI5
asVremove_mean
p411
I01
sVthreshold
p412
F10.0
sVstretch
p413
F0.1
ssaaasa(dp414
g15
g150
sg17
(lp415
(lp416
(lp417
Vlnorm
p418
a(dp419
Vkwargs
p420
(dp421
Vinker_shape
p422
(lp423
I7
aI7
asVoutker_shape
p424
(lp425
I7
aI7
asVremove_mean
p426
I00
sVthreshold
p427
F0.1
sVstretch
p428
F0.1
ssaaa(lp429
(lp430
Vfbcorr
p431
a(dp432
Vinitialize
p433
(dp434
Vn_filters
p435
I16
sVfilter_shape
p436
(lp437
I5
aI5
asVgenerate
p438
(lp439
Vrandom:uniform
p440
a(dp441
Vrseed
p442
I42
sassVkwargs
p443
(dp444
Vmax_out
p445
NsVmin_out
p446
Nssaa(lp447
Vlpool
p448
a(dp449
Vkwargs
p450
(dp451
Vker_shape
p452
(lp453
I3
aI3
asVorder
p454
F2.0
sVstride
p455
I2
ssaa(lp456
Vlnorm
p457
a(dp458
Vkwargs
p459
(dp460
Vinker_shape
p461
(lp462
I5
aI5
asVoutker_shape
p463
(lp464
I5
aI5
asVremove_mean
p465
I00
sVthreshold
p466
F1.0
sVstretch
p467
F1.0
ssaaa(lp468
(lp469
Vfbcorr
p470
a(dp471
Vinitialize
p472
(dp473
Vn_filters
p474
I64
sVfilter_shape
p475
(lp476
I9
aI9
asVgenerate
p477
(lp478
Vrandom:uniform
p479
a(dp480
Vrseed
p481
I42
sassVkwargs
p482
(dp483
Vmax_out
p484
I1
sVmin_out
p485
I0
ssaa(lp486
Vlpool
p487
a(dp488
Vkwargs
p489
(dp490
Vker_shape
p491
(lp492
I9
aI9
asVorder
p493
F10.0
sVstride
p494
I2
ssaa(lp495
Vlnorm
p496
a(dp497
Vkwargs
p498
(dp499
Vinker_shape
p500
(lp501
I7
aI7
asVoutker_shape
p502
(lp503
I7
aI7
asVremove_mean
p504
I00
sVthreshold
p505
F1.0
sVstretch
p506
F0.1
ssaaasa(dp507
g15
g16
sg17
(lp508
(lp509
(lp510
Vlnorm
p511
a(dp512
Vkwargs
p513
(dp514
Vinker_shape
p515
(lp516
I7
aI7
asVoutker_shape
p517
(lp518
I7
aI7
asVremove_mean
p519
I00
sVthreshold
p520
F1.0
sVstretch
p521
F1.0
ssaaa(lp522
(lp523
Vfbcorr
p524
a(dp525
Vinitialize
p526
(dp527
Vn_filters
p528
I16
sVfilter_shape
p529
(lp530
I3
aI3
asVgenerate
p531
(lp532
Vrandom:uniform
p533
a(dp534
Vrseed
p535
I42
sassVkwargs
p536
(dp537
Vmax_out
p538
NsVmin_out
p539
Nssaa(lp540
Vlpool
p541
a(dp542
Vkwargs
p543
(dp544
Vker_shape
p545
(lp546
I7
aI7
asVorder
p547
F10.0
sVstride
p548
I2
ssaa(lp549
Vlnorm
p550
a(dp551
Vkwargs
p552
(dp553
Vinker_shape
p554
(lp555
I7
aI7
asVoutker_shape
p556
(lp557
I7
aI7
asVremove_mean
p558
I01
sVthreshold
p559
F0.1
sVstretch
p560
F1.0
ssaaa(lp561
(lp562
Vfbcorr
p563
a(dp564
Vinitialize
p565
(dp566
Vn_filters
p567
I64
sVfilter_shape
p568
(lp569
I7
aI7
asVgenerate
p570
(lp571
Vrandom:uniform
p572
a(dp573
Vrseed
p574
I42
sassVkwargs
p575
(dp576
Vmax_out
p577
NsVmin_out
p578
I0
ssaa(lp579
Vlpool
p580
a(dp581
Vkwargs
p582
(dp583
Vker_shape
p584
(lp585
I9
aI9
asVorder
p586
F10.0
sVstride
p587
I2
ssaa(lp588
Vlnorm
p589
a(dp590
Vkwargs
p591
(dp592
Vinker_shape
p593
(lp594
I9
aI9
asVoutker_shape
p595
(lp596
I9
aI9
asVremove_mean
p597
I01
sVthreshold
p598
F0.1
sVstretch
p599
F0.1
ssaaa(lp600
(lp601
Vfbcorr
p602
a(dp603
Vinitialize
p604
(dp605
Vn_filters
p606
I256
sVfilter_shape
p607
(lp608
I7
aI7
asVgenerate
p609
(lp610
Vrandom:uniform
p611
a(dp612
Vrseed
p613
I42
sassVkwargs
p614
(dp615
Vmax_out
p616
I1
sVmin_out
p617
Nssaa(lp618
Vlpool
p619
a(dp620
Vkwargs
p621
(dp622
Vker_shape
p623
(lp624
I9
aI9
asVorder
p625
F2.0
sVstride
p626
I2
ssaa(lp627
Vlnorm
p628
a(dp629
Vkwargs
p630
(dp631
Vinker_shape
p632
(lp633
I9
aI9
asVoutker_shape
p634
(lp635
I9
aI9
asVremove_mean
p636
I01
sVthreshold
p637
F10.0
sVstretch
p638
F0.1
ssaaasa(dp639
g15
g16
sg17
(lp640
(lp641
(lp642
Vlnorm
p643
a(dp644
Vkwargs
p645
(dp646
Vinker_shape
p647
(lp648
I9
aI9
asVoutker_shape
p649
(lp650
I9
aI9
asVremove_mean
p651
I00
sVthreshold
p652
F10.0
sVstretch
p653
F10.0
ssaaa(lp654
(lp655
Vfbcorr
p656
a(dp657
Vinitialize
p658
(dp659
Vn_filters
p660
I32
sVfilter_shape
p661
(lp662
I9
aI9
asVgenerate
p663
(lp664
Vrandom:uniform
p665
a(dp666
Vrseed
p667
I42
sassVkwargs
p668
(dp669
Vmax_out
p670
NsVmin_out
p671
Nssaa(lp672
Vlpool
p673
a(dp674
Vkwargs
p675
(dp676
Vker_shape
p677
(lp678
I7
aI7
asVorder
p679
F1.0
sVstride
p680
I2
ssaa(lp681
Vlnorm
p682
a(dp683
Vkwargs
p684
(dp685
Vinker_shape
p686
(lp687
I5
aI5
asVoutker_shape
p688
(lp689
I5
aI5
asVremove_mean
p690
I00
sVthreshold
p691
F1.0
sVstretch
p692
F0.1
ssaaa(lp693
(lp694
Vfbcorr
p695
a(dp696
Vinitialize
p697
(dp698
Vn_filters
p699
I32
sVfilter_shape
p700
(lp701
I5
aI5
asVgenerate
p702
(lp703
Vrandom:uniform
p704
a(dp705
Vrseed
p706
I42
sassVkwargs
p707
(dp708
Vmax_out
p709
NsVmin_out
p710
I0
ssaa(lp711
Vlpool
p712
a(dp713
Vkwargs
p714
(dp715
Vker_shape
p716
(lp717
I7
aI7
asVorder
p718
F10.0
sVstride
p719
I2
ssaa(lp720
Vlnorm
p721
a(dp722
Vkwargs
p723
(dp724
Vinker_shape
p725
(lp726
I7
aI7
asVoutker_shape
p727
(lp728
I7
aI7
asVremove_mean
p729
I01
sVthreshold
p730
F10.0
sVstretch
p731
F0.1
ssaaa(lp732
(lp733
Vfbcorr
p734
a(dp735
Vinitialize
p736
(dp737
Vn_filters
p738
I128
sVfilter_shape
p739
(lp740
I7
aI7
asVgenerate
p741
(lp742
Vrandom:uniform
p743
a(dp744
Vrseed
p745
I42
sassVkwargs
p746
(dp747
Vmax_out
p748
NsVmin_out
p749
Nssaa(lp750
Vlpool
p751
a(dp752
Vkwargs
p753
(dp754
Vker_shape
p755
(lp756
I9
aI9
asVorder
p757
F2.0
sVstride
p758
I2
ssaa(lp759
Vlnorm
p760
a(dp761
Vkwargs
p762
(dp763
Vinker_shape
p764
(lp765
I7
aI7
asVoutker_shape
p766
(lp767
I7
aI7
asVremove_mean
p768
I00
sVthreshold
p769
F10.0
sVstretch
p770
F0.1
ssaaasatp771
b.